target datalayout = "e-m:e-p270:32:32-p271:32:32-p272:64:64-i64:64-i128:128-f80:128-n8:16:32:64-S128"
target triple = "x86_64-pc-linux-gnu"

%"class.std::__cxx11::basic_string" = type { %"struct.std::__cxx11::basic_string<char>::_Alloc_hider", i64, %union.anon }
%"struct.std::__cxx11::basic_string<char>::_Alloc_hider" = type { ptr }
%union.anon = type { i64, [8 x i8] }
%"class.std::basic_string_view" = type { i64, ptr }
%"class.std::allocator" = type { i8 }
%"struct.std::__cxx11::basic_string<char>::__sv_wrapper" = type { %"class.std::basic_string_view" }

@.str.3 = private unnamed_addr constant [2 x i8] c"/\00", align 1
@.str.5 = private unnamed_addr constant [2 x i8] c".\00", align 1
@.str.47 = private unnamed_addr constant [26 x i8] c"basic_string_view::substr\00", align 1
@.str.48 = private unnamed_addr constant [49 x i8] c"%s: __pos (which is %zu) > __size (which is %zu)\00", align 1

; Function Attrs: mustprogress nounwind uwtable
define linkonce_odr noundef ptr @_ZNKSt17basic_string_viewIcSt11char_traitsIcEE4dataEv(ptr noundef nonnull align 8 dereferenceable(16) %0) #2 comdat align 2 {
  %2 = alloca ptr, align 8
  store ptr %0, ptr %2, align 8
  %3 = load ptr, ptr %2, align 8
  %4 = getelementptr inbounds %"class.std::basic_string_view", ptr %3, i32 0, i32 1
  %5 = load ptr, ptr %4, align 8
  ret ptr %5
}

; Function Attrs: mustprogress uwtable
define linkonce_odr void @_ZNSt7__cxx1112basic_stringIcSt11char_traitsIcESaIcEEC2ENS4_12__sv_wrapperERKS3_(ptr noundef nonnull align 8 dereferenceable(32) %0, i64 %1, ptr %2, ptr noundef nonnull align 1 dereferenceable(1) %3) unnamed_addr #3 comdat align 2 {
  %5 = alloca %"struct.std::__cxx11::basic_string<char>::__sv_wrapper", align 8
  %6 = alloca ptr, align 8
  %7 = alloca ptr, align 8
  %8 = getelementptr inbounds { i64, ptr }, ptr %5, i32 0, i32 0
  store i64 %1, ptr %8, align 8
  %9 = getelementptr inbounds { i64, ptr }, ptr %5, i32 0, i32 1
  store ptr %2, ptr %9, align 8
  store ptr %0, ptr %6, align 8
  store ptr %3, ptr %7, align 8
  %10 = load ptr, ptr %6, align 8
  %11 = getelementptr inbounds %"struct.std::__cxx11::basic_string<char>::__sv_wrapper", ptr %5, i32 0, i32 0
  %12 = call noundef ptr @_ZNKSt17basic_string_viewIcSt11char_traitsIcEE4dataEv(ptr noundef nonnull align 8 dereferenceable(16) %11) #1
  %13 = getelementptr inbounds %"struct.std::__cxx11::basic_string<char>::__sv_wrapper", ptr %5, i32 0, i32 0
  %14 = call noundef i64 @_ZNKSt17basic_string_viewIcSt11char_traitsIcEE4sizeEv(ptr noundef nonnull align 8 dereferenceable(16) %13) #1
  %15 = load ptr, ptr %7, align 8
  call void @_ZNSt7__cxx1112basic_stringIcSt11char_traitsIcESaIcEEC2EPKcmRKS3_(ptr noundef nonnull align 8 dereferenceable(32) %10, ptr noundef %12, i64 noundef %14, ptr noundef nonnull align 1 dereferenceable(1) %15)
  ret void
}

; Function Attrs: mustprogress nounwind uwtable
define linkonce_odr void @_ZNSt7__cxx1112basic_stringIcSt11char_traitsIcESaIcEE12__sv_wrapperC2ESt17basic_string_viewIcS2_E(ptr noundef nonnull align 8 dereferenceable(16) %0, i64 %1, ptr %2) unnamed_addr #2 comdat align 2 {
  %4 = alloca %"class.std::basic_string_view", align 8
  %5 = alloca ptr, align 8
  %6 = getelementptr inbounds { i64, ptr }, ptr %4, i32 0, i32 0
  store i64 %1, ptr %6, align 8
  %7 = getelementptr inbounds { i64, ptr }, ptr %4, i32 0, i32 1
  store ptr %2, ptr %7, align 8
  store ptr %0, ptr %5, align 8
  %8 = load ptr, ptr %5, align 8
  %9 = getelementptr inbounds %"struct.std::__cxx11::basic_string<char>::__sv_wrapper", ptr %8, i32 0, i32 0
  call void @llvm.memcpy.p0.p0.i64(ptr align 8 %9, ptr align 8 %4, i64 16, i1 false)
  ret void
}

; Function Attrs: mustprogress nounwind uwtable
define linkonce_odr void @_ZNSt17basic_string_viewIcSt11char_traitsIcEEC2EPKcm(ptr noundef nonnull align 8 dereferenceable(16) %0, ptr noundef %1, i64 noundef %2) unnamed_addr #2 comdat align 2 {
  %4 = alloca ptr, align 8
  %5 = alloca ptr, align 8
  %6 = alloca i64, align 8
  store ptr %0, ptr %4, align 8
  store ptr %1, ptr %5, align 8
  store i64 %2, ptr %6, align 8
  %7 = load ptr, ptr %4, align 8
  %8 = getelementptr inbounds %"class.std::basic_string_view", ptr %7, i32 0, i32 0
  %9 = load i64, ptr %6, align 8
  store i64 %9, ptr %8, align 8
  %10 = getelementptr inbounds %"class.std::basic_string_view", ptr %7, i32 0, i32 1
  %11 = load ptr, ptr %5, align 8
  store ptr %11, ptr %10, align 8
  ret void
}

; Function Attrs: mustprogress nounwind uwtable
define linkonce_odr noundef nonnull align 8 dereferenceable(8) ptr @_ZSt3minImERKT_S2_S2_(ptr noundef nonnull align 8 dereferenceable(8) %0, ptr noundef nonnull align 8 dereferenceable(8) %1) #2 comdat {
  %3 = alloca ptr, align 8
  %4 = alloca ptr, align 8
  %5 = alloca ptr, align 8
  store ptr %0, ptr %4, align 8
  store ptr %1, ptr %5, align 8
  %6 = load ptr, ptr %5, align 8
  %7 = load i64, ptr %6, align 8
  %8 = load ptr, ptr %4, align 8
  %9 = load i64, ptr %8, align 8
  %10 = icmp ult i64 %7, %9
  br i1 %10, label %11, label %13

11:                                               ; preds = %2
  %12 = load ptr, ptr %5, align 8
  store ptr %12, ptr %3, align 8
  br label %15

13:                                               ; preds = %2
  %14 = load ptr, ptr %4, align 8
  store ptr %14, ptr %3, align 8
  br label %15

15:                                               ; preds = %13, %11
  %16 = load ptr, ptr %3, align 8
  ret ptr %16
}

; Function Attrs: mustprogress uwtable
define linkonce_odr noundef i64 @_ZSt10__sv_checkmmPKc(i64 noundef %0, i64 noundef %1, ptr noundef %2) #3 comdat {
  %4 = alloca i64, align 8
  %5 = alloca i64, align 8
  %6 = alloca ptr, align 8
  store i64 %0, ptr %4, align 8
  store i64 %1, ptr %5, align 8
  store ptr %2, ptr %6, align 8
  %7 = load i64, ptr %5, align 8
  %8 = load i64, ptr %4, align 8
  %9 = icmp ugt i64 %7, %8
  br i1 %9, label %10, label %14

10:                                               ; preds = %3
  %11 = load ptr, ptr %6, align 8
  %12 = load i64, ptr %5, align 8
  %13 = load i64, ptr %4, align 8
  call void (ptr, ...) @_ZSt24__throw_out_of_range_fmtPKcz(ptr noundef @.str.48, ptr noundef %11, i64 noundef %12, i64 noundef %13) #20
  unreachable

14:                                               ; preds = %3
  %15 = load i64, ptr %5, align 8
  ret i64 %15
}

; Function Attrs: mustprogress nounwind uwtable
define linkonce_odr noundef i64 @_ZNKSt17basic_string_viewIcSt11char_traitsIcEE4sizeEv(ptr noundef nonnull align 8 dereferenceable(16) %0) #2 comdat align 2 {
  %2 = alloca ptr, align 8
  store ptr %0, ptr %2, align 8
  %3 = load ptr, ptr %2, align 8
  %4 = getelementptr inbounds %"class.std::basic_string_view", ptr %3, i32 0, i32 0
  %5 = load i64, ptr %4, align 8
  ret i64 %5
}

; Function Attrs: mustprogress uwtable
define linkonce_odr void @_ZNSt7__cxx1112basic_stringIcSt11char_traitsIcESaIcEEC2ISt17basic_string_viewIcS2_EvEERKT_RKS3_(ptr noundef nonnull align 8 dereferenceable(32) %0, ptr noundef nonnull align 8 dereferenceable(16) %1, ptr noundef nonnull align 1 dereferenceable(1) %2) unnamed_addr #3 comdat align 2 {
  %4 = alloca ptr, align 8
  %5 = alloca ptr, align 8
  %6 = alloca ptr, align 8
  %7 = alloca %"struct.std::__cxx11::basic_string<char>::__sv_wrapper", align 8
  %8 = alloca %"class.std::basic_string_view", align 8
  %9 = alloca %"class.std::basic_string_view", align 8
  store ptr %0, ptr %4, align 8
  store ptr %1, ptr %5, align 8
  store ptr %2, ptr %6, align 8
  %10 = load ptr, ptr %4, align 8
  %11 = load ptr, ptr %5, align 8
  call void @llvm.memcpy.p0.p0.i64(ptr align 8 %9, ptr align 8 %11, i64 16, i1 false)
  %12 = getelementptr inbounds { i64, ptr }, ptr %9, i32 0, i32 0
  %13 = load i64, ptr %12, align 8
  %14 = getelementptr inbounds { i64, ptr }, ptr %9, i32 0, i32 1
  %15 = load ptr, ptr %14, align 8
  %16 = call { i64, ptr } @_ZNSt7__cxx1112basic_stringIcSt11char_traitsIcESaIcEE17_S_to_string_viewESt17basic_string_viewIcS2_E(i64 %13, ptr %15) #1
  %17 = getelementptr inbounds { i64, ptr }, ptr %8, i32 0, i32 0
  %18 = extractvalue { i64, ptr } %16, 0
  store i64 %18, ptr %17, align 8
  %19 = getelementptr inbounds { i64, ptr }, ptr %8, i32 0, i32 1
  %20 = extractvalue { i64, ptr } %16, 1
  store ptr %20, ptr %19, align 8
  %21 = getelementptr inbounds { i64, ptr }, ptr %8, i32 0, i32 0
  %22 = load i64, ptr %21, align 8
  %23 = getelementptr inbounds { i64, ptr }, ptr %8, i32 0, i32 1
  %24 = load ptr, ptr %23, align 8
  call void @_ZNSt7__cxx1112basic_stringIcSt11char_traitsIcESaIcEE12__sv_wrapperC2ESt17basic_string_viewIcS2_E(ptr noundef nonnull align 8 dereferenceable(16) %7, i64 %22, ptr %24) #1
  %25 = load ptr, ptr %6, align 8
  %26 = getelementptr inbounds { i64, ptr }, ptr %7, i32 0, i32 0
  %27 = load i64, ptr %26, align 8
  %28 = getelementptr inbounds { i64, ptr }, ptr %7, i32 0, i32 1
  %29 = load ptr, ptr %28, align 8
  call void @_ZNSt7__cxx1112basic_stringIcSt11char_traitsIcESaIcEEC2ENS4_12__sv_wrapperERKS3_(ptr noundef nonnull align 8 dereferenceable(32) %10, i64 %27, ptr %29, ptr noundef nonnull align 1 dereferenceable(1) %25)
  ret void
}

; Function Attrs: mustprogress uwtable
define linkonce_odr { i64, ptr } @_ZNKSt17basic_string_viewIcSt11char_traitsIcEE6substrEmm(ptr noundef nonnull align 8 dereferenceable(16) %0, i64 noundef %1, i64 noundef %2) #3 comdat align 2 {
  %4 = alloca %"class.std::basic_string_view", align 8
  %5 = alloca ptr, align 8
  %6 = alloca i64, align 8
  %7 = alloca i64, align 8
  %8 = alloca i64, align 8
  %9 = alloca i64, align 8
  store ptr %0, ptr %5, align 8
  store i64 %1, ptr %6, align 8
  store i64 %2, ptr %7, align 8
  %10 = load ptr, ptr %5, align 8
  %11 = call noundef i64 @_ZNKSt17basic_string_viewIcSt11char_traitsIcEE4sizeEv(ptr noundef nonnull align 8 dereferenceable(16) %10) #1
  %12 = load i64, ptr %6, align 8
  %13 = call noundef i64 @_ZSt10__sv_checkmmPKc(i64 noundef %11, i64 noundef %12, ptr noundef @.str.47)
  store i64 %13, ptr %6, align 8
  %14 = getelementptr inbounds %"class.std::basic_string_view", ptr %10, i32 0, i32 0
  %15 = load i64, ptr %14, align 8
  %16 = load i64, ptr %6, align 8
  %17 = sub i64 %15, %16
  store i64 %17, ptr %9, align 8
  %18 = call noundef nonnull align 8 dereferenceable(8) ptr @_ZSt3minImERKT_S2_S2_(ptr noundef nonnull align 8 dereferenceable(8) %7, ptr noundef nonnull align 8 dereferenceable(8) %9)
  %19 = load i64, ptr %18, align 8
  store i64 %19, ptr %8, align 8
  %20 = getelementptr inbounds %"class.std::basic_string_view", ptr %10, i32 0, i32 1
  %21 = load ptr, ptr %20, align 8
  %22 = load i64, ptr %6, align 8
  %23 = getelementptr inbounds i8, ptr %21, i64 %22
  %24 = load i64, ptr %8, align 8
  call void @_ZNSt17basic_string_viewIcSt11char_traitsIcEEC2EPKcm(ptr noundef nonnull align 8 dereferenceable(16) %4, ptr noundef %23, i64 noundef %24) #1
  %25 = load { i64, ptr }, ptr %4, align 8
  ret { i64, ptr } %25
}

; Function Attrs: mustprogress nounwind uwtable
define linkonce_odr { i64, ptr } @_ZNSt7__cxx1112basic_stringIcSt11char_traitsIcESaIcEE17_S_to_string_viewESt17basic_string_viewIcS2_E(i64 %0, ptr %1) #2 comdat align 2 {
  %3 = alloca %"class.std::basic_string_view", align 8
  %4 = alloca %"class.std::basic_string_view", align 8
  %5 = getelementptr inbounds { i64, ptr }, ptr %4, i32 0, i32 0
  store i64 %0, ptr %5, align 8
  %6 = getelementptr inbounds { i64, ptr }, ptr %4, i32 0, i32 1
  store ptr %1, ptr %6, align 8
  call void @llvm.memcpy.p0.p0.i64(ptr align 8 %3, ptr align 8 %4, i64 16, i1 false)
  %7 = load { i64, ptr }, ptr %3, align 8
  ret { i64, ptr } %7
}

; Function Attrs: mustprogress nounwind uwtable
define linkonce_odr noundef zeroext i1 @_ZNSt11char_traitsIcE2eqERKcS2_(ptr noundef nonnull align 1 dereferenceable(1) %0, ptr noundef nonnull align 1 dereferenceable(1) %1) #2 comdat align 2 {
  %3 = alloca ptr, align 8
  %4 = alloca ptr, align 8
  store ptr %0, ptr %3, align 8
  store ptr %1, ptr %4, align 8
  %5 = load ptr, ptr %3, align 8
  %6 = load i8, ptr %5, align 1
  %7 = sext i8 %6 to i32
  %8 = load ptr, ptr %4, align 8
  %9 = load i8, ptr %8, align 1
  %10 = sext i8 %9 to i32
  %11 = icmp eq i32 %7, %10
  ret i1 %11
}

; Function Attrs: mustprogress uwtable
define linkonce_odr void @_ZNSt7__cxx1112basic_stringIcSt11char_traitsIcESaIcEEC2ISt17basic_string_viewIcS2_EvEERKT_mmRKS3_(ptr noundef nonnull align 8 dereferenceable(32) %0, ptr noundef nonnull align 8 dereferenceable(16) %1, i64 noundef %2, i64 noundef %3, ptr noundef nonnull align 1 dereferenceable(1) %4) unnamed_addr #3 comdat align 2 {
  %6 = alloca ptr, align 8
  %7 = alloca ptr, align 8
  %8 = alloca i64, align 8
  %9 = alloca i64, align 8
  %10 = alloca ptr, align 8
  %11 = alloca %"class.std::basic_string_view", align 8
  %12 = alloca %"class.std::basic_string_view", align 8
  %13 = alloca %"class.std::basic_string_view", align 8
  store ptr %0, ptr %6, align 8
  store ptr %1, ptr %7, align 8
  store i64 %2, ptr %8, align 8
  store i64 %3, ptr %9, align 8
  store ptr %4, ptr %10, align 8
  %14 = load ptr, ptr %6, align 8
  %15 = load ptr, ptr %7, align 8
  call void @llvm.memcpy.p0.p0.i64(ptr align 8 %13, ptr align 8 %15, i64 16, i1 false)
  %16 = getelementptr inbounds { i64, ptr }, ptr %13, i32 0, i32 0
  %17 = load i64, ptr %16, align 8
  %18 = getelementptr inbounds { i64, ptr }, ptr %13, i32 0, i32 1
  %19 = load ptr, ptr %18, align 8
  %20 = call { i64, ptr } @_ZNSt7__cxx1112basic_stringIcSt11char_traitsIcESaIcEE17_S_to_string_viewESt17basic_string_viewIcS2_E(i64 %17, ptr %19) #1
  %21 = getelementptr inbounds { i64, ptr }, ptr %12, i32 0, i32 0
  %22 = extractvalue { i64, ptr } %20, 0
  store i64 %22, ptr %21, align 8
  %23 = getelementptr inbounds { i64, ptr }, ptr %12, i32 0, i32 1
  %24 = extractvalue { i64, ptr } %20, 1
  store ptr %24, ptr %23, align 8
  %25 = load i64, ptr %8, align 8
  %26 = load i64, ptr %9, align 8
  %27 = call { i64, ptr } @_ZNKSt17basic_string_viewIcSt11char_traitsIcEE6substrEmm(ptr noundef nonnull align 8 dereferenceable(16) %12, i64 noundef %25, i64 noundef %26)
  %28 = getelementptr inbounds { i64, ptr }, ptr %11, i32 0, i32 0
  %29 = extractvalue { i64, ptr } %27, 0
  store i64 %29, ptr %28, align 8
  %30 = getelementptr inbounds { i64, ptr }, ptr %11, i32 0, i32 1
  %31 = extractvalue { i64, ptr } %27, 1
  store ptr %31, ptr %30, align 8
  %32 = load ptr, ptr %10, align 8
  call void @_ZNSt7__cxx1112basic_stringIcSt11char_traitsIcESaIcEEC2ISt17basic_string_viewIcS2_EvEERKT_RKS3_(ptr noundef nonnull align 8 dereferenceable(32) %14, ptr noundef nonnull align 8 dereferenceable(16) %11, ptr noundef nonnull align 1 dereferenceable(1) %32)
  ret void
}

; Function Attrs: mustprogress nounwind uwtable
define linkonce_odr noundef i64 @_ZNKSt17basic_string_viewIcSt11char_traitsIcEE5rfindEcm(ptr noundef nonnull align 8 dereferenceable(16) %0, i8 noundef signext %1, i64 noundef %2) #2 comdat align 2 {
  %4 = alloca i64, align 8
  %5 = alloca ptr, align 8
  %6 = alloca i8, align 1
  %7 = alloca i64, align 8
  %8 = alloca i64, align 8
  store ptr %0, ptr %5, align 8
  store i8 %1, ptr %6, align 1
  store i64 %2, ptr %7, align 8
  %9 = load ptr, ptr %5, align 8
  %10 = getelementptr inbounds %"class.std::basic_string_view", ptr %9, i32 0, i32 0
  %11 = load i64, ptr %10, align 8
  store i64 %11, ptr %8, align 8
  %12 = load i64, ptr %8, align 8
  %13 = icmp ugt i64 %12, 0
  br i1 %13, label %14, label %38

14:                                               ; preds = %3
  %15 = load i64, ptr %8, align 8
  %16 = add i64 %15, -1
  store i64 %16, ptr %8, align 8
  %17 = load i64, ptr %7, align 8
  %18 = icmp ugt i64 %16, %17
  br i1 %18, label %19, label %21

19:                                               ; preds = %14
  %20 = load i64, ptr %7, align 8
  store i64 %20, ptr %8, align 8
  br label %21

21:                                               ; preds = %19, %14
  %22 = load i64, ptr %8, align 8
  %23 = add i64 %22, 1
  store i64 %23, ptr %8, align 8
  br label %24

24:                                               ; preds = %36, %21
  %25 = load i64, ptr %8, align 8
  %26 = add i64 %25, -1
  store i64 %26, ptr %8, align 8
  %27 = icmp ugt i64 %25, 0
  br i1 %27, label %28, label %37

28:                                               ; preds = %24
  %29 = getelementptr inbounds %"class.std::basic_string_view", ptr %9, i32 0, i32 1
  %30 = load ptr, ptr %29, align 8
  %31 = load i64, ptr %8, align 8
  %32 = getelementptr inbounds i8, ptr %30, i64 %31
  %33 = call noundef zeroext i1 @_ZNSt11char_traitsIcE2eqERKcS2_(ptr noundef nonnull align 1 dereferenceable(1) %32, ptr noundef nonnull align 1 dereferenceable(1) %6) #1
  br i1 %33, label %34, label %36

34:                                               ; preds = %28
  %35 = load i64, ptr %8, align 8
  store i64 %35, ptr %4, align 8
  br label %39

36:                                               ; preds = %28
  br label %24, !llvm.loop !7

37:                                               ; preds = %24
  br label %38

38:                                               ; preds = %37, %3
  store i64 -1, ptr %4, align 8
  br label %39

39:                                               ; preds = %38, %34
  %40 = load i64, ptr %4, align 8
  ret i64 %40
}

; Function Attrs: mustprogress uwtable
define void @_ZN3nix5dirOfB5cxx11ESt17basic_string_viewIcSt11char_traitsIcEE(ptr dead_on_unwind noalias writable sret(%"class.std::__cxx11::basic_string") align 8 %0, i64 %1, ptr %2) #3 personality ptr @__gxx_personality_v0 {
  %4 = alloca ptr, align 8
  %5 = alloca %"class.std::basic_string_view", align 8
  %6 = alloca i64, align 8
  %7 = alloca %"class.std::allocator", align 1
  %8 = alloca ptr, align 8
  %9 = alloca i32, align 4
  %10 = alloca %"class.std::allocator", align 1
  %11 = alloca i1, align 1
  %12 = alloca %"class.std::allocator", align 1
  %13 = alloca i1, align 1
  store ptr %0, ptr %4, align 8
  %14 = getelementptr inbounds { i64, ptr }, ptr %5, i32 0, i32 0
  store i64 %1, ptr %14, align 8
  %15 = getelementptr inbounds { i64, ptr }, ptr %5, i32 0, i32 1
  store ptr %2, ptr %15, align 8
  %16 = call noundef i64 @_ZNKSt17basic_string_viewIcSt11char_traitsIcEE5rfindEcm(ptr noundef nonnull align 8 dereferenceable(16) %5, i8 noundef signext 47, i64 noundef -1) #1
  store i64 %16, ptr %6, align 8
  %17 = load i64, ptr %6, align 8
  %18 = icmp eq i64 %17, -1
  br i1 %18, label %19, label %25

19:                                               ; preds = %3
  call void @_ZNSaIcEC1Ev(ptr noundef nonnull align 1 dereferenceable(1) %7) #1
  invoke void @_ZNSt7__cxx1112basic_stringIcSt11char_traitsIcESaIcEEC2IS3_EEPKcRKS3_(ptr noundef nonnull align 8 dereferenceable(32) %0, ptr noundef @.str.5, ptr noundef nonnull align 1 dereferenceable(1) %7)
          to label %20 unwind label %21

20:                                               ; preds = %19
  call void @_ZNSaIcED1Ev(ptr noundef nonnull align 1 dereferenceable(1) %7) #1
  br label %55

21:                                               ; preds = %19
  %22 = landingpad { ptr, i32 }
          cleanup
  %23 = extractvalue { ptr, i32 } %22, 0
  store ptr %23, ptr %8, align 8
  %24 = extractvalue { ptr, i32 } %22, 1
  store i32 %24, ptr %9, align 4
  call void @_ZNSaIcED1Ev(ptr noundef nonnull align 1 dereferenceable(1) %7) #1
  br label %56

25:                                               ; preds = %3
  %26 = load i64, ptr %6, align 8
  %27 = icmp eq i64 %26, 0
  store i1 false, ptr %11, align 1
  store i1 false, ptr %13, align 1
  br i1 %27, label %28, label %30

28:                                               ; preds = %25
  call void @_ZNSaIcEC1Ev(ptr noundef nonnull align 1 dereferenceable(1) %10) #1
  store i1 true, ptr %11, align 1
  invoke void @_ZNSt7__cxx1112basic_stringIcSt11char_traitsIcESaIcEEC2IS3_EEPKcRKS3_(ptr noundef nonnull align 8 dereferenceable(32) %0, ptr noundef @.str.3, ptr noundef nonnull align 1 dereferenceable(1) %10)
          to label %29 unwind label %40

29:                                               ; preds = %28
  br label %33

30:                                               ; preds = %25
  %31 = load i64, ptr %6, align 8
  call void @_ZNSaIcEC1Ev(ptr noundef nonnull align 1 dereferenceable(1) %12) #1
  store i1 true, ptr %13, align 1
  invoke void @_ZNSt7__cxx1112basic_stringIcSt11char_traitsIcESaIcEEC2ISt17basic_string_viewIcS2_EvEERKT_mmRKS3_(ptr noundef nonnull align 8 dereferenceable(32) %0, ptr noundef nonnull align 8 dereferenceable(16) %5, i64 noundef 0, i64 noundef %31, ptr noundef nonnull align 1 dereferenceable(1) %12)
          to label %32 unwind label %44

32:                                               ; preds = %30
  br label %33

33:                                               ; preds = %32, %29
  %34 = load i1, ptr %13, align 1
  br i1 %34, label %35, label %36

35:                                               ; preds = %33
  call void @_ZNSaIcED1Ev(ptr noundef nonnull align 1 dereferenceable(1) %12) #1
  br label %36

36:                                               ; preds = %35, %33
  %37 = load i1, ptr %11, align 1
  br i1 %37, label %38, label %39

38:                                               ; preds = %36
  call void @_ZNSaIcED1Ev(ptr noundef nonnull align 1 dereferenceable(1) %10) #1
  br label %39

39:                                               ; preds = %38, %36
  br label %55

40:                                               ; preds = %28
  %41 = landingpad { ptr, i32 }
          cleanup
  %42 = extractvalue { ptr, i32 } %41, 0
  store ptr %42, ptr %8, align 8
  %43 = extractvalue { ptr, i32 } %41, 1
  store i32 %43, ptr %9, align 4
  br label %51

44:                                               ; preds = %30
  %45 = landingpad { ptr, i32 }
          cleanup
  %46 = extractvalue { ptr, i32 } %45, 0
  store ptr %46, ptr %8, align 8
  %47 = extractvalue { ptr, i32 } %45, 1
  store i32 %47, ptr %9, align 4
  %48 = load i1, ptr %13, align 1
  br i1 %48, label %49, label %50

49:                                               ; preds = %44
  call void @_ZNSaIcED1Ev(ptr noundef nonnull align 1 dereferenceable(1) %12) #1
  br label %50

50:                                               ; preds = %49, %44
  br label %51

51:                                               ; preds = %50, %40
  %52 = load i1, ptr %11, align 1
  br i1 %52, label %53, label %54

53:                                               ; preds = %51
  call void @_ZNSaIcED1Ev(ptr noundef nonnull align 1 dereferenceable(1) %10) #1
  br label %54

54:                                               ; preds = %53, %51
  br label %56

55:                                               ; preds = %39, %20
  ret void

56:                                               ; preds = %54, %21
  %57 = load ptr, ptr %8, align 8
  %58 = load i32, ptr %9, align 4
  %59 = insertvalue { ptr, i32 } poison, ptr %57, 0
  %60 = insertvalue { ptr, i32 } %59, i32 %58, 1
  resume { ptr, i32 } %60
}