; Function Attrs: mustprogress uwtable
define void @_ZN3nix5dirOfB5cxx11ESt17basic_string_viewIcSt11char_traitsIcEE(ptr dead_on_unwind noalias writable sret(%"class.std::__cxx11::basic_string") align 8 %0, i64 %1, ptr %2) local_unnamed_addr #2 personality ptr @__gxx_personality_v0 {
  %4 = alloca %"class.std::allocator", align 1
  %5 = alloca %"class.std::allocator", align 1
  %6 = alloca %"class.std::allocator", align 1
  %.not.i = icmp eq i64 %1, 0
  br i1 %.not.i, label %.loopexit, label %.preheader

.preheader:                                       ; preds = %3, %7
  %.1.i = phi i64 [ %8, %7 ], [ %1, %3 ]
  %.not13.i = icmp eq i64 %.1.i, 0
  br i1 %.not13.i, label %.loopexit, label %7

7:                                                ; preds = %.preheader
  %8 = add i64 %.1.i, -1
  %9 = getelementptr inbounds i8, ptr %2, i64 %8
  %10 = load i8, ptr %9, align 1
  %11 = icmp eq i8 %10, 47
  br i1 %11, label %_ZNKSt17basic_string_viewIcSt11char_traitsIcEE5rfindEcm.exit, label %.preheader, !llvm.loop !15

.loopexit:                                        ; preds = %.preheader, %3
  call void @_ZNSaIcEC1Ev(ptr noundef nonnull align 1 dereferenceable(1) %4) #29
  invoke void @_ZNSt7__cxx1112basic_stringIcSt11char_traitsIcESaIcEEC2IS3_EEPKcRKS3_(ptr noundef nonnull align 8 dereferenceable(32) %0, ptr noundef nonnull @.str.5, ptr noundef nonnull align 1 dereferenceable(1) %4)
          to label %_ZNSt7__cxx1112basic_stringIcSt11char_traitsIcESaIcEEC2ISt17basic_string_viewIcS2_EvEERKT_mmRKS3_.exit unwind label %12

12:                                               ; preds = %.loopexit
  %13 = landingpad { ptr, i32 }
          cleanup
  br label %20

_ZNKSt17basic_string_viewIcSt11char_traitsIcEE5rfindEcm.exit: ; preds = %7
  %.not = icmp eq i64 %8, 0
  br i1 %.not, label %14, label %15

14:                                               ; preds = %_ZNKSt17basic_string_viewIcSt11char_traitsIcEE5rfindEcm.exit
  call void @_ZNSaIcEC1Ev(ptr noundef nonnull align 1 dereferenceable(1) %5) #29
  invoke void @_ZNSt7__cxx1112basic_stringIcSt11char_traitsIcESaIcEEC2IS3_EEPKcRKS3_(ptr noundef nonnull align 8 dereferenceable(32) %0, ptr noundef nonnull @.str.3, ptr noundef nonnull align 1 dereferenceable(1) %5)
          to label %_ZNSt7__cxx1112basic_stringIcSt11char_traitsIcESaIcEEC2ISt17basic_string_viewIcS2_EvEERKT_mmRKS3_.exit unwind label %18

15:                                               ; preds = %_ZNKSt17basic_string_viewIcSt11char_traitsIcEE5rfindEcm.exit
  call void @_ZNSaIcEC1Ev(ptr noundef nonnull align 1 dereferenceable(1) %6) #29
  invoke void @_ZNSt7__cxx1112basic_stringIcSt11char_traitsIcESaIcEEC2EPKcmRKS3_(ptr noundef nonnull align 8 dereferenceable(32) %0, ptr noundef nonnull %2, i64 noundef %8, ptr noundef nonnull align 1 dereferenceable(1) %6)
          to label %_ZNSt7__cxx1112basic_stringIcSt11char_traitsIcESaIcEEC2ISt17basic_string_viewIcS2_EvEERKT_mmRKS3_.exit unwind label %16

16:                                               ; preds = %15
  %17 = landingpad { ptr, i32 }
          cleanup
  br label %20

18:                                               ; preds = %14
  %19 = landingpad { ptr, i32 }
          cleanup
  br label %20

_ZNSt7__cxx1112basic_stringIcSt11char_traitsIcESaIcEEC2ISt17basic_string_viewIcS2_EvEERKT_mmRKS3_.exit: ; preds = %14, %15, %.loopexit
  %.sink = phi ptr [ %4, %.loopexit ], [ %6, %15 ], [ %5, %14 ]
  call void @_ZNSaIcED1Ev(ptr noundef nonnull align 1 dereferenceable(1) %.sink) #29
  ret void

20:                                               ; preds = %16, %18, %12
  %.sink21 = phi ptr [ %6, %16 ], [ %5, %18 ], [ %4, %12 ]
  %.pn15 = phi { ptr, i32 } [ %17, %16 ], [ %19, %18 ], [ %13, %12 ]
  call void @_ZNSaIcED1Ev(ptr noundef nonnull align 1 dereferenceable(1) %.sink21) #29
  resume { ptr, i32 } %.pn15
}